; Function Attrs: mustprogress nofree norecurse nosync nounwind willreturn memory(readwrite, inaccessiblemem: none) uwtable
define dso_local void @_ZN4Luau6TxnLog7popSeenEPKvS2_(ptr nocapture noundef nonnull readonly align 8 dereferenceable(128) %0, ptr nocapture noundef readnone %1, ptr nocapture noundef readnone %2) local_unnamed_addr #7 align 2 {
  %4 = getelementptr inbounds i8, ptr %0, i64 120
  %5 = load ptr, ptr %4, align 8
  %6 = getelementptr inbounds i8, ptr %5, i64 8
  %7 = load ptr, ptr %6, align 8
  %8 = getelementptr inbounds i8, ptr %7, i64 -16
  store ptr %8, ptr %6, align 8
  ret void
}